target datalayout = "e-m:e-p270:32:32-p271:32:32-p272:64:64-i64:64-i128:128-f80:128-n8:16:32:64-S128"
target triple = "x86_64-pc-linux-gnu"

%"class.datalog::rule_subsumption_index" = type { ptr, %class.ref_vector, %class.obj_map, %class.hashtable }
%class.ref_vector = type { %class.ref_vector_core }
%class.ref_vector_core = type { %class.ref_manager_wrapper, %class.ptr_vector }
%class.ref_manager_wrapper = type { ptr }
%class.ptr_vector = type { %class.vector }
%class.vector = type { ptr }
%class.obj_map = type { %class.core_hashtable }
%class.core_hashtable = type <{ ptr, i32, i32, i32, [4 x i8] }>
%class.hashtable = type { %class.core_hashtable.base.1, [4 x i8] }
%class.core_hashtable.base.1 = type <{ ptr, i32, i32, i32 }>
%"class.datalog::rule" = type { %"class.datalog::accounted_object.base", ptr, ptr, i32, i32, i32, i32, %class.symbol, [0 x ptr] }
%"class.datalog::accounted_object.base" = type <{ ptr, ptr, %"struct.datalog::costs", %"struct.datalog::costs", i8 }>
%"struct.datalog::costs" = type { i32, i32 }
%class.symbol = type { ptr }

; Function Attrs: mustprogress uwtable
define linkonce_odr hidden noundef zeroext i1 @_ZNK14core_hashtableI18default_hash_entryIPN7datalog4ruleEENS1_14rule_hash_procENS1_12rule_eq_procEE8containsERKS3_(ptr noundef nonnull align 8 dereferenceable(20) %0, ptr noundef nonnull align 8 dereferenceable(8) %1) #4 comdat align 2 {
  %3 = alloca ptr, align 8
  %4 = alloca ptr, align 8
  store ptr %0, ptr %3, align 8, !tbaa !47
  store ptr %1, ptr %4, align 8, !tbaa !49
  %5 = load ptr, ptr %3, align 8
  %6 = load ptr, ptr %4, align 8, !tbaa !49
  %7 = call noundef ptr @_ZNK14core_hashtableI18default_hash_entryIPN7datalog4ruleEENS1_14rule_hash_procENS1_12rule_eq_procEE9find_coreERKS3_(ptr noundef nonnull align 8 dereferenceable(20) %5, ptr noundef nonnull align 8 dereferenceable(8) %6)
  %8 = icmp ne ptr %7, null
  ret i1 %8
}

; Function Attrs: mustprogress nounwind uwtable
define linkonce_odr hidden noundef ptr @_ZNK7datalog4rule8get_headEv(ptr noundef nonnull align 8 dereferenceable(80) %0) #6 comdat align 2 {
  %2 = alloca ptr, align 8
  store ptr %0, ptr %2, align 8, !tbaa !8
  %3 = load ptr, ptr %2, align 8
  %4 = getelementptr inbounds nuw %"class.datalog::rule", ptr %3, i32 0, i32 1
  %5 = load ptr, ptr %4, align 8, !tbaa !16
  ret ptr %5
}

; Function Attrs: mustprogress uwtable
define hidden noundef zeroext i1 @_ZN7datalog22rule_subsumption_index11is_subsumedEPNS_4ruleE(ptr noundef nonnull align 8 dereferenceable(72) %0, ptr noundef %1) #4 align 2 {
  %3 = alloca i1, align 1
  %4 = alloca ptr, align 8
  %5 = alloca ptr, align 8
  %6 = alloca ptr, align 8
  %7 = alloca i32, align 4
  store ptr %0, ptr %4, align 8, !tbaa !3
  store ptr %1, ptr %5, align 8, !tbaa !8
  %8 = load ptr, ptr %4, align 8
  call void @llvm.lifetime.start.p0(i64 8, ptr %6) #3
  %9 = load ptr, ptr %5, align 8, !tbaa !8
  %10 = call noundef ptr @_ZNK7datalog4rule8get_headEv(ptr noundef nonnull align 8 dereferenceable(80) %9)
  store ptr %10, ptr %6, align 8, !tbaa !10
  %11 = load ptr, ptr %6, align 8, !tbaa !10
  %12 = call noundef zeroext i1 @_ZN7datalog22rule_subsumption_index11is_subsumedEP3app(ptr noundef nonnull align 8 dereferenceable(72) %8, ptr noundef %11)
  br i1 %12, label %13, label %14

13:                                               ; preds = %2
  store i1 true, ptr %3, align 1
  store i32 1, ptr %7, align 4
  br label %19

14:                                               ; preds = %2
  %15 = getelementptr inbounds nuw %"class.datalog::rule_subsumption_index", ptr %8, i32 0, i32 3
  %16 = call noundef zeroext i1 @_ZNK14core_hashtableI18default_hash_entryIPN7datalog4ruleEENS1_14rule_hash_procENS1_12rule_eq_procEE8containsERKS3_(ptr noundef nonnull align 8 dereferenceable(20) %15, ptr noundef nonnull align 8 dereferenceable(8) %5)
  br i1 %16, label %17, label %18

17:                                               ; preds = %14
  store i1 true, ptr %3, align 1
  store i32 1, ptr %7, align 4
  br label %19

18:                                               ; preds = %14
  store i1 false, ptr %3, align 1
  store i32 1, ptr %7, align 4
  br label %19

19:                                               ; preds = %18, %17, %13
  call void @llvm.lifetime.end.p0(i64 8, ptr %6) #3
  %20 = load i1, ptr %3, align 1
  ret i1 %20
}