; Function Attrs: mustprogress uwtable
define hidden noundef zeroext i1 @_ZN7datalog22rule_subsumption_index11is_subsumedEPNS_4ruleE(ptr noundef nonnull align 8 dereferenceable(72) %0, ptr noundef %1) local_unnamed_addr #3 align 2 {
  %3 = alloca ptr, align 8
  store ptr %1, ptr %3, align 8, !tbaa !54
  %4 = getelementptr inbounds nuw i8, ptr %1, i64 40
  %5 = load ptr, ptr %4, align 8, !tbaa !3
  %6 = tail call noundef zeroext i1 @_ZN7datalog22rule_subsumption_index11is_subsumedEP3app(ptr noundef nonnull align 8 dereferenceable(72) %0, ptr noundef %5)
  br i1 %6, label %11, label %7

7:                                                ; preds = %2
  %8 = getelementptr inbounds nuw i8, ptr %0, i64 48
  %9 = call noundef ptr @_ZNK14core_hashtableI18default_hash_entryIPN7datalog4ruleEENS1_14rule_hash_procENS1_12rule_eq_procEE9find_coreERKS3_(ptr noundef nonnull align 8 dereferenceable(20) %8, ptr noundef nonnull align 8 dereferenceable(8) %3)
  %10 = icmp ne ptr %9, null
  br label %11

11:                                               ; preds = %7, %2
  %.0 = phi i1 [ true, %2 ], [ %10, %7 ]
  ret i1 %.0
}